; Function Attrs: mustprogress nofree norecurse nosync nounwind willreturn memory(argmem: readwrite) uwtable
define void @_ZN5Ipopt22MultiVectorMatrixSpaceC2EiRKNS_11VectorSpaceE(ptr noundef nonnull writeonly align 8 captures(none) dereferenceable(32) initializes((0, 20), (24, 32)) %0, i32 noundef %1, ptr noundef nonnull align 8 dereferenceable(16) %2) unnamed_addr #11 align 2 personality ptr @__gxx_personality_v0 {
  %4 = getelementptr inbounds nuw i8, ptr %2, i64 12
  %5 = load i32, ptr %4, align 4, !tbaa !73
  %6 = getelementptr inbounds nuw i8, ptr %0, i64 8
  store i32 0, ptr %6, align 8, !tbaa !13
  %7 = getelementptr inbounds nuw i8, ptr %0, i64 12
  store i32 %5, ptr %7, align 4, !tbaa !93
  %8 = getelementptr inbounds nuw i8, ptr %0, i64 16
  store i32 %1, ptr %8, align 8, !tbaa !52
  store ptr getelementptr inbounds nuw inrange(-16, 24) (i8, ptr @_ZTVN5Ipopt22MultiVectorMatrixSpaceE, i64 16), ptr %0, align 8, !tbaa !16
  %9 = getelementptr inbounds nuw i8, ptr %0, i64 24
  %10 = getelementptr inbounds nuw i8, ptr %2, i64 8
  %11 = load i32, ptr %10, align 8, !tbaa !13
  %12 = add nsw i32 %11, 1
  store i32 %12, ptr %10, align 8, !tbaa !13
  store ptr %2, ptr %9, align 8, !tbaa !81
  ret void
}